target datalayout = "e-m:e-p270:32:32-p271:32:32-p272:64:64-i64:64-i128:128-f80:128-n8:16:32:64-S128"
target triple = "x86_64-unknown-linux-gnu"

; Function Attrs: mustprogress nounwind uwtable
define internal void @_ZL14write_unsignedIjEvRN4llvh11raw_ostreamET_mNS0_12IntegerStyleEb(ptr noundef nonnull align 8 dereferenceable(36) %S, i32 noundef %N, i64 noundef %MinDigits, i32 noundef %Style, i1 noundef zeroext %IsNegative) #0 {
entry:
  %S.addr = alloca ptr, align 8
  %N.addr = alloca i32, align 4
  %MinDigits.addr = alloca i64, align 8
  %Style.addr = alloca i32, align 4
  %IsNegative.addr = alloca i8, align 1
  store ptr %S, ptr %S.addr, align 8
  store i32 %N, ptr %N.addr, align 4
  store i64 %MinDigits, ptr %MinDigits.addr, align 8
  store i32 %Style, ptr %Style.addr, align 4
  %frombool = zext i1 %IsNegative to i8
  store i8 %frombool, ptr %IsNegative.addr, align 1
  %0 = load i32, ptr %N.addr, align 4
  %1 = load i32, ptr %N.addr, align 4
  %cmp = icmp eq i32 %0, %1
  br i1 %cmp, label %if.then, label %if.else

if.then:                                          ; preds = %entry
  %2 = load ptr, ptr %S.addr, align 8
  %3 = load i32, ptr %N.addr, align 4
  %4 = load i64, ptr %MinDigits.addr, align 8
  %5 = load i32, ptr %Style.addr, align 4
  %6 = load i8, ptr %IsNegative.addr, align 1
  %tobool = trunc i8 %6 to i1
  call void @_ZL19write_unsigned_implIjEvRN4llvh11raw_ostreamET_mNS0_12IntegerStyleEb(ptr noundef nonnull align 8 dereferenceable(36) %2, i32 noundef %3, i64 noundef %4, i32 noundef %5, i1 noundef zeroext %tobool)
  br label %if.end

if.else:                                          ; preds = %entry
  %7 = load ptr, ptr %S.addr, align 8
  %8 = load i32, ptr %N.addr, align 4
  %9 = load i64, ptr %MinDigits.addr, align 8
  %10 = load i32, ptr %Style.addr, align 4
  %11 = load i8, ptr %IsNegative.addr, align 1
  %tobool1 = trunc i8 %11 to i1
  call void @_ZL19write_unsigned_implIjEvRN4llvh11raw_ostreamET_mNS0_12IntegerStyleEb(ptr noundef nonnull align 8 dereferenceable(36) %7, i32 noundef %8, i64 noundef %9, i32 noundef %10, i1 noundef zeroext %tobool1)
  br label %if.end

if.end:                                           ; preds = %if.else, %if.then
  ret void
}

; Function Attrs: mustprogress nounwind uwtable
define internal void @_ZL12write_signedIiEvRN4llvh11raw_ostreamET_mNS0_12IntegerStyleE(ptr noundef nonnull align 8 dereferenceable(36) %S, i32 noundef %N, i64 noundef %MinDigits, i32 noundef %Style) #0 {
entry:
  %S.addr = alloca ptr, align 8
  %N.addr = alloca i32, align 4
  %MinDigits.addr = alloca i64, align 8
  %Style.addr = alloca i32, align 4
  %UN = alloca i32, align 4
  store ptr %S, ptr %S.addr, align 8
  store i32 %N, ptr %N.addr, align 4
  store i64 %MinDigits, ptr %MinDigits.addr, align 8
  store i32 %Style, ptr %Style.addr, align 4
  %0 = load i32, ptr %N.addr, align 4
  %cmp = icmp sge i32 %0, 0
  br i1 %cmp, label %if.then, label %if.end

if.then:                                          ; preds = %entry
  %1 = load ptr, ptr %S.addr, align 8
  %2 = load i32, ptr %N.addr, align 4
  %3 = load i64, ptr %MinDigits.addr, align 8
  %4 = load i32, ptr %Style.addr, align 4
  call void @_ZL14write_unsignedIjEvRN4llvh11raw_ostreamET_mNS0_12IntegerStyleEb(ptr noundef nonnull align 8 dereferenceable(36) %1, i32 noundef %2, i64 noundef %3, i32 noundef %4, i1 noundef zeroext false)
  br label %return

if.end:                                           ; preds = %entry
  %5 = load i32, ptr %N.addr, align 4
  %sub = sub i32 0, %5
  store i32 %sub, ptr %UN, align 4
  %6 = load ptr, ptr %S.addr, align 8
  %7 = load i32, ptr %UN, align 4
  %8 = load i64, ptr %MinDigits.addr, align 8
  %9 = load i32, ptr %Style.addr, align 4
  call void @_ZL14write_unsignedIjEvRN4llvh11raw_ostreamET_mNS0_12IntegerStyleEb(ptr noundef nonnull align 8 dereferenceable(36) %6, i32 noundef %7, i64 noundef %8, i32 noundef %9, i1 noundef zeroext true)
  br label %return

return:                                           ; preds = %if.end, %if.then
  ret void
}

; Function Attrs: mustprogress nounwind uwtable
define hidden void @_ZN4llvh13write_integerERNS_11raw_ostreamEimNS_12IntegerStyleE(ptr noundef nonnull align 8 dereferenceable(36) %S, i32 noundef %N, i64 noundef %MinDigits, i32 noundef %Style) #0 {
entry:
  %S.addr = alloca ptr, align 8
  %N.addr = alloca i32, align 4
  %MinDigits.addr = alloca i64, align 8
  %Style.addr = alloca i32, align 4
  store ptr %S, ptr %S.addr, align 8
  store i32 %N, ptr %N.addr, align 4
  store i64 %MinDigits, ptr %MinDigits.addr, align 8
  store i32 %Style, ptr %Style.addr, align 4
  %0 = load ptr, ptr %S.addr, align 8
  %1 = load i32, ptr %N.addr, align 4
  %2 = load i64, ptr %MinDigits.addr, align 8
  %3 = load i32, ptr %Style.addr, align 4
  call void @_ZL12write_signedIiEvRN4llvh11raw_ostreamET_mNS0_12IntegerStyleE(ptr noundef nonnull align 8 dereferenceable(36) %0, i32 noundef %1, i64 noundef %2, i32 noundef %3)
  ret void
}